target datalayout = "e-m:e-p270:32:32-p271:32:32-p272:64:64-i64:64-i128:128-f80:128-n8:16:32:64-S128"
target triple = "x86_64-pc-linux-gnu"

; Function Attrs: nounwind uwtable
define hidden zeroext i8 @luaO_ceillog2(i32 noundef %0) #0 {
  %2 = alloca i32, align 4
  %3 = alloca i32, align 4
  store i32 %0, ptr %2, align 4, !tbaa !4
  call void @llvm.lifetime.start.p0(i64 4, ptr %3) #10
  store i32 0, ptr %3, align 4, !tbaa !4
  %4 = load i32, ptr %2, align 4, !tbaa !4
  %5 = add i32 %4, -1
  store i32 %5, ptr %2, align 4, !tbaa !4
  br label %6

6:                                                ; preds = %9, %1
  %7 = load i32, ptr %2, align 4, !tbaa !4
  %8 = icmp uge i32 %7, 256
  br i1 %8, label %9, label %14

9:                                                ; preds = %6
  %10 = load i32, ptr %3, align 4, !tbaa !4
  %11 = add nsw i32 %10, 8
  store i32 %11, ptr %3, align 4, !tbaa !4
  %12 = load i32, ptr %2, align 4, !tbaa !4
  %13 = lshr i32 %12, 8
  store i32 %13, ptr %2, align 4, !tbaa !4
  br label %6

14:                                               ; preds = %6
  %15 = load i32, ptr %3, align 4, !tbaa !4
  %16 = load i32, ptr %2, align 4, !tbaa !4
  %17 = zext i32 %16 to i64
  %18 = getelementptr inbounds nuw [256 x i8], ptr @luaO_ceillog2.log_2, i64 0, i64 %17
  %19 = load i8, ptr %18, align 1, !tbaa !8
  %20 = zext i8 %19 to i32
  %21 = add nsw i32 %15, %20
  %22 = trunc i32 %21 to i8
  call void @llvm.lifetime.end.p0(i64 4, ptr %3) #10
  ret i8 %22
}