; Function Attrs: nofree norecurse nosync nounwind memory(none) uwtable
define hidden zeroext i8 @luaO_ceillog2(i32 noundef %0) local_unnamed_addr #0 {
  %2 = add i32 %0, -1
  %3 = icmp ugt i32 %2, 255
  br i1 %3, label %.lr.ph, label %._crit_edge

.lr.ph:                                           ; preds = %1, %.lr.ph
  %.08 = phi i8 [ %4, %.lr.ph ], [ 0, %1 ]
  %.067 = phi i32 [ %5, %.lr.ph ], [ %2, %1 ]
  %4 = add i8 %.08, 8
  %5 = lshr i32 %.067, 8
  %6 = icmp ugt i32 %.067, 65535
  br i1 %6, label %.lr.ph, label %._crit_edge

._crit_edge:                                      ; preds = %.lr.ph, %1
  %.06.lcssa = phi i32 [ %2, %1 ], [ %5, %.lr.ph ]
  %.0.lcssa = phi i8 [ 0, %1 ], [ %4, %.lr.ph ]
  %7 = zext nneg i32 %.06.lcssa to i64
  %8 = getelementptr inbounds nuw [256 x i8], ptr @luaO_ceillog2.log_2, i64 0, i64 %7
  %9 = load i8, ptr %8, align 1, !tbaa !4
  %10 = add i8 %9, %.0.lcssa
  ret i8 %10
}